; Function Attrs: nounwind uwtable
define ptr @l_Array_mapMUnsafe_map___at_Lean_Server_FileWorker_waitUnknownIdentifierRanges___spec__3(i64 noundef %0, i64 noundef %1, ptr noundef %2) local_unnamed_addr #0 {
  %.not42 = icmp ult i64 %1, %0
  br i1 %.not42, label %.lr.ph, label %._crit_edge

.lr.ph:                                           ; preds = %3, %62
  %.01844 = phi i64 [ %46, %62 ], [ %1, %3 ]
  %.02043 = phi ptr [ %.0.i.i31, %62 ], [ %2, %3 ]
  %4 = getelementptr inbounds nuw i8, ptr %.02043, i64 24
  %5 = getelementptr inbounds nuw [0 x ptr], ptr %4, i64 0, i64 %.01844
  %6 = load ptr, ptr %5, align 8, !tbaa !4
  %7 = ptrtoint ptr %6 to i64
  %8 = and i64 %7, 1
  %.not.i = icmp eq i64 %8, 0
  br i1 %.not.i, label %9, label %lean_array_uget.exit

9:                                                ; preds = %.lr.ph
  %.val.i.i = load i32, ptr %6, align 4, !tbaa !8
  %10 = icmp sgt i32 %.val.i.i, 0
  br i1 %10, label %11, label %13, !prof !11

11:                                               ; preds = %9
  %12 = add nuw i32 %.val.i.i, 1
  store i32 %12, ptr %6, align 4, !tbaa !8
  br label %lean_array_uget.exit

13:                                               ; preds = %9
  %.not.i.i = icmp eq i32 %.val.i.i, 0
  br i1 %.not.i.i, label %lean_array_uget.exit, label %14

14:                                               ; preds = %13
  tail call void @lean_inc_ref_cold(ptr noundef nonnull %6) #5
  br label %lean_array_uget.exit

lean_array_uget.exit:                             ; preds = %.lr.ph, %11, %13, %14
  %.val.i.i23 = load i32, ptr %.02043, align 4, !tbaa !8
  %15 = icmp eq i32 %.val.i.i23, 1
  br i1 %15, label %lean_ensure_exclusive_array.exit.i, label %16

16:                                               ; preds = %lean_array_uget.exit
  %17 = tail call ptr @lean_copy_expand_array(ptr noundef nonnull %.02043, i1 noundef zeroext false) #5
  br label %lean_ensure_exclusive_array.exit.i

lean_ensure_exclusive_array.exit.i:               ; preds = %16, %lean_array_uget.exit
  %.0.i.i = phi ptr [ %17, %16 ], [ %.02043, %lean_array_uget.exit ]
  %18 = getelementptr inbounds nuw i8, ptr %.0.i.i, i64 24
  %19 = getelementptr inbounds nuw ptr, ptr %18, i64 %.01844
  %20 = load ptr, ptr %19, align 8, !tbaa !4
  %21 = ptrtoint ptr %20 to i64
  %22 = and i64 %21, 1
  %.not.i24 = icmp eq i64 %22, 0
  br i1 %.not.i24, label %23, label %lean_array_uset.exit

23:                                               ; preds = %lean_ensure_exclusive_array.exit.i
  %24 = load i32, ptr %20, align 4, !tbaa !8
  %25 = icmp sgt i32 %24, 1
  br i1 %25, label %26, label %28, !prof !11

26:                                               ; preds = %23
  %27 = add nsw i32 %24, -1
  store i32 %27, ptr %20, align 4, !tbaa !8
  br label %lean_array_uset.exit

28:                                               ; preds = %23
  %.not.i.i25 = icmp eq i32 %24, 0
  br i1 %.not.i.i25, label %lean_array_uset.exit, label %29

29:                                               ; preds = %28
  tail call void @lean_dec_ref_cold(ptr noundef nonnull %20) #5
  br label %lean_array_uset.exit

lean_array_uset.exit:                             ; preds = %lean_ensure_exclusive_array.exit.i, %26, %28, %29
  store ptr inttoptr (i64 1 to ptr), ptr %19, align 8, !tbaa !4
  %30 = tail call ptr @lean_task_get(ptr noundef %6) #5
  %31 = ptrtoint ptr %30 to i64
  %32 = and i64 %31, 1
  %.not.i26 = icmp eq i64 %32, 0
  br i1 %.not.i26, label %33, label %lean_inc.exit.i

33:                                               ; preds = %lean_array_uset.exit
  %.val.i.i28 = load i32, ptr %30, align 4, !tbaa !8
  %34 = icmp sgt i32 %.val.i.i28, 0
  br i1 %34, label %35, label %37, !prof !11

35:                                               ; preds = %33
  %36 = add nuw i32 %.val.i.i28, 1
  store i32 %36, ptr %30, align 4, !tbaa !8
  br label %lean_inc.exit.i

37:                                               ; preds = %33
  %.not.i4.i = icmp eq i32 %.val.i.i28, 0
  br i1 %.not.i4.i, label %lean_inc.exit.i, label %38

38:                                               ; preds = %37
  tail call void @lean_inc_ref_cold(ptr noundef nonnull %30) #5
  br label %lean_inc.exit.i

lean_inc.exit.i:                                  ; preds = %38, %37, %35, %lean_array_uset.exit
  br i1 %.not.i, label %39, label %lean_task_get_own.exit

39:                                               ; preds = %lean_inc.exit.i
  %40 = load i32, ptr %6, align 4, !tbaa !8
  %41 = icmp sgt i32 %40, 1
  br i1 %41, label %42, label %44, !prof !11

42:                                               ; preds = %39
  %43 = add nsw i32 %40, -1
  store i32 %43, ptr %6, align 4, !tbaa !8
  br label %lean_task_get_own.exit

44:                                               ; preds = %39
  %.not.i.i27 = icmp eq i32 %40, 0
  br i1 %.not.i.i27, label %lean_task_get_own.exit, label %45

45:                                               ; preds = %44
  tail call void @lean_dec_ref_cold(ptr noundef nonnull %6) #5
  br label %lean_task_get_own.exit

lean_task_get_own.exit:                           ; preds = %lean_inc.exit.i, %42, %44, %45
  %46 = add nuw i64 %.01844, 1
  %.val.i.i29 = load i32, ptr %.0.i.i, align 4, !tbaa !8
  %47 = icmp eq i32 %.val.i.i29, 1
  br i1 %47, label %lean_ensure_exclusive_array.exit.i30, label %48

48:                                               ; preds = %lean_task_get_own.exit
  %49 = tail call ptr @lean_copy_expand_array(ptr noundef nonnull %.0.i.i, i1 noundef zeroext false) #5
  br label %lean_ensure_exclusive_array.exit.i30

lean_ensure_exclusive_array.exit.i30:             ; preds = %48, %lean_task_get_own.exit
  %.0.i.i31 = phi ptr [ %49, %48 ], [ %.0.i.i, %lean_task_get_own.exit ]
  %50 = getelementptr inbounds nuw i8, ptr %.0.i.i31, i64 24
  %51 = getelementptr inbounds nuw ptr, ptr %50, i64 %.01844
  %52 = load ptr, ptr %51, align 8, !tbaa !4
  %53 = ptrtoint ptr %52 to i64
  %54 = and i64 %53, 1
  %.not.i32 = icmp eq i64 %54, 0
  br i1 %.not.i32, label %55, label %62

55:                                               ; preds = %lean_ensure_exclusive_array.exit.i30
  %56 = load i32, ptr %52, align 4, !tbaa !8
  %57 = icmp sgt i32 %56, 1
  br i1 %57, label %58, label %60, !prof !11

58:                                               ; preds = %55
  %59 = add nsw i32 %56, -1
  store i32 %59, ptr %52, align 4, !tbaa !8
  br label %62

60:                                               ; preds = %55
  %.not.i.i33 = icmp eq i32 %56, 0
  br i1 %.not.i.i33, label %62, label %61

61:                                               ; preds = %60
  tail call void @lean_dec_ref_cold(ptr noundef nonnull %52) #5
  br label %62

62:                                               ; preds = %61, %60, %58, %lean_ensure_exclusive_array.exit.i30
  store ptr %30, ptr %51, align 8, !tbaa !4
  %exitcond.not = icmp eq i64 %46, %0
  br i1 %exitcond.not, label %._crit_edge, label %.lr.ph

._crit_edge:                                      ; preds = %62, %3
  %.020.lcssa = phi ptr [ %2, %3 ], [ %.0.i.i31, %62 ]
  ret ptr %.020.lcssa
}